; Function Attrs: mustprogress uwtable
define internal void @_ZN32pxrInternal_v0_24__pxrReserved__12_GLOBAL__N_128_PrimAdapterAPISchemaAdapter21GetImagingSubprimDataERKNS_7UsdPrimERKNS_7TfTokenES7_RKNS_32UsdImagingDataSourceStageGlobalsE(ptr dead_on_unwind noalias writable sret(%"class.std::shared_ptr.122") align 8 %0, ptr noundef nonnull readonly align 8 captures(none) dereferenceable(40) %1, ptr noundef nonnull align 8 dereferenceable(32) %2, ptr noundef nonnull align 8 dereferenceable(8) %3, ptr nonnull readnone align 8 captures(none) %4, ptr noundef nonnull align 8 dereferenceable(8) %5) unnamed_addr #0 align 2 {
  %7 = getelementptr inbounds nuw i8, ptr %1, i64 24
  %8 = load ptr, ptr %7, align 8
  %9 = load ptr, ptr %8, align 8
  %10 = getelementptr inbounds nuw i8, ptr %9, i64 32
  %11 = load ptr, ptr %10, align 8
  tail call void %11(ptr dead_on_unwind writable sret(%"class.std::shared_ptr.122") align 8 %0, ptr noundef nonnull align 8 dereferenceable(32) %8, ptr noundef nonnull align 8 dereferenceable(32) %2, ptr noundef nonnull align 8 dereferenceable(8) %3, ptr noundef nonnull align 8 dereferenceable(8) %5)
  ret void
}